target datalayout = "e-m:e-p270:32:32-p271:32:32-p272:64:64-i64:64-i128:128-f80:128-n8:16:32:64-S128"
target triple = "x86_64-pc-linux-gnu"

; Function Attrs: nounwind uwtable
define void @stbir__decode_uint8_srgb4_linearalpha_ABGR(ptr noundef %0, i32 noundef %1, ptr noundef %2) #3 {
  %4 = alloca ptr, align 8
  %5 = alloca i32, align 4
  %6 = alloca ptr, align 8
  %7 = alloca ptr, align 8
  %8 = alloca ptr, align 8
  %9 = alloca ptr, align 8
  store ptr %0, ptr %4, align 8, !tbaa !21
  store i32 %1, ptr %5, align 4, !tbaa !26
  store ptr %2, ptr %6, align 8, !tbaa !3
  call void @llvm.lifetime.start.p0(i64 8, ptr %7) #12
  %10 = load ptr, ptr %4, align 8, !tbaa !21
  store ptr %10, ptr %7, align 8, !tbaa !21
  call void @llvm.lifetime.start.p0(i64 8, ptr %8) #12
  %11 = load ptr, ptr %7, align 8, !tbaa !21
  %12 = load i32, ptr %5, align 4, !tbaa !26
  %13 = sext i32 %12 to i64
  %14 = getelementptr inbounds float, ptr %11, i64 %13
  store ptr %14, ptr %8, align 8, !tbaa !21
  call void @llvm.lifetime.start.p0(i64 8, ptr %9) #12
  %15 = load ptr, ptr %6, align 8, !tbaa !3
  store ptr %15, ptr %9, align 8, !tbaa !9
  br label %16

16:                                               ; preds = %52, %3
  %17 = load ptr, ptr %9, align 8, !tbaa !9
  %18 = getelementptr inbounds i8, ptr %17, i64 3
  %19 = load i8, ptr %18, align 1, !tbaa !12
  %20 = zext i8 %19 to i64
  %21 = getelementptr inbounds nuw [256 x float], ptr @stbir__srgb_uchar_to_linear_float, i64 0, i64 %20
  %22 = load float, ptr %21, align 4, !tbaa !29
  %23 = load ptr, ptr %7, align 8, !tbaa !21
  %24 = getelementptr inbounds float, ptr %23, i64 0
  store float %22, ptr %24, align 4, !tbaa !29
  %25 = load ptr, ptr %9, align 8, !tbaa !9
  %26 = getelementptr inbounds i8, ptr %25, i64 2
  %27 = load i8, ptr %26, align 1, !tbaa !12
  %28 = zext i8 %27 to i64
  %29 = getelementptr inbounds nuw [256 x float], ptr @stbir__srgb_uchar_to_linear_float, i64 0, i64 %28
  %30 = load float, ptr %29, align 4, !tbaa !29
  %31 = load ptr, ptr %7, align 8, !tbaa !21
  %32 = getelementptr inbounds float, ptr %31, i64 1
  store float %30, ptr %32, align 4, !tbaa !29
  %33 = load ptr, ptr %9, align 8, !tbaa !9
  %34 = getelementptr inbounds i8, ptr %33, i64 1
  %35 = load i8, ptr %34, align 1, !tbaa !12
  %36 = zext i8 %35 to i64
  %37 = getelementptr inbounds nuw [256 x float], ptr @stbir__srgb_uchar_to_linear_float, i64 0, i64 %36
  %38 = load float, ptr %37, align 4, !tbaa !29
  %39 = load ptr, ptr %7, align 8, !tbaa !21
  %40 = getelementptr inbounds float, ptr %39, i64 2
  store float %38, ptr %40, align 4, !tbaa !29
  %41 = load ptr, ptr %9, align 8, !tbaa !9
  %42 = getelementptr inbounds i8, ptr %41, i64 0
  %43 = load i8, ptr %42, align 1, !tbaa !12
  %44 = uitofp i8 %43 to float
  %45 = fmul float %44, 0x3F70101020000000
  %46 = load ptr, ptr %7, align 8, !tbaa !21
  %47 = getelementptr inbounds float, ptr %46, i64 3
  store float %45, ptr %47, align 4, !tbaa !29
  %48 = load ptr, ptr %9, align 8, !tbaa !9
  %49 = getelementptr inbounds i8, ptr %48, i64 4
  store ptr %49, ptr %9, align 8, !tbaa !9
  %50 = load ptr, ptr %7, align 8, !tbaa !21
  %51 = getelementptr inbounds float, ptr %50, i64 4
  store ptr %51, ptr %7, align 8, !tbaa !21
  br label %52

52:                                               ; preds = %16
  %53 = load ptr, ptr %7, align 8, !tbaa !21
  %54 = load ptr, ptr %8, align 8, !tbaa !21
  %55 = icmp ult ptr %53, %54
  br i1 %55, label %16, label %56, !llvm.loop !371

56:                                               ; preds = %52
  call void @llvm.lifetime.end.p0(i64 8, ptr %9) #12
  call void @llvm.lifetime.end.p0(i64 8, ptr %8) #12
  call void @llvm.lifetime.end.p0(i64 8, ptr %7) #12
  ret void
}