; Function Attrs: nofree norecurse nosync nounwind memory(read, argmem: readwrite, inaccessiblemem: none) uwtable
define void @stbir__decode_uint8_srgb4_linearalpha_ABGR(ptr noundef writeonly captures(address) %0, i32 noundef %1, ptr noundef readonly captures(none) %2) #7 {
  %4 = sext i32 %1 to i64
  %5 = getelementptr inbounds float, ptr %0, i64 %4
  br label %6

6:                                                ; preds = %6, %3
  %.015 = phi ptr [ %0, %3 ], [ %29, %6 ]
  %.0 = phi ptr [ %2, %3 ], [ %28, %6 ]
  %7 = getelementptr inbounds nuw i8, ptr %.0, i64 3
  %8 = load i8, ptr %7, align 1, !tbaa !4
  %9 = zext i8 %8 to i64
  %10 = getelementptr inbounds nuw [256 x float], ptr @stbir__srgb_uchar_to_linear_float, i64 0, i64 %9
  %11 = load float, ptr %10, align 4, !tbaa !50
  store float %11, ptr %.015, align 4, !tbaa !50
  %12 = getelementptr inbounds nuw i8, ptr %.0, i64 2
  %13 = load i8, ptr %12, align 1, !tbaa !4
  %14 = zext i8 %13 to i64
  %15 = getelementptr inbounds nuw [256 x float], ptr @stbir__srgb_uchar_to_linear_float, i64 0, i64 %14
  %16 = load float, ptr %15, align 4, !tbaa !50
  %17 = getelementptr inbounds nuw i8, ptr %.015, i64 4
  store float %16, ptr %17, align 4, !tbaa !50
  %18 = getelementptr inbounds nuw i8, ptr %.0, i64 1
  %19 = load i8, ptr %18, align 1, !tbaa !4
  %20 = zext i8 %19 to i64
  %21 = getelementptr inbounds nuw [256 x float], ptr @stbir__srgb_uchar_to_linear_float, i64 0, i64 %20
  %22 = load float, ptr %21, align 4, !tbaa !50
  %23 = getelementptr inbounds nuw i8, ptr %.015, i64 8
  store float %22, ptr %23, align 4, !tbaa !50
  %24 = load i8, ptr %.0, align 1, !tbaa !4
  %25 = uitofp i8 %24 to float
  %26 = fmul float %25, 0x3F70101020000000
  %27 = getelementptr inbounds nuw i8, ptr %.015, i64 12
  store float %26, ptr %27, align 4, !tbaa !50
  %28 = getelementptr inbounds nuw i8, ptr %.0, i64 4
  %29 = getelementptr inbounds nuw i8, ptr %.015, i64 16
  %30 = icmp ult ptr %29, %5
  br i1 %30, label %6, label %31, !llvm.loop !316

31:                                               ; preds = %6
  ret void
}